; ModuleID = '57/1008.c'
source_filename = "57/1008.c"
target datalayout = "e-m:e-p270:32:32-p271:32:32-p272:64:64-i64:64-f80:128-n8:16:32:64-S128"
target triple = "x86_64-pc-linux-gnu"

@.str = private unnamed_addr constant [3 x i8] c"%d\00", align 1
@.str.1 = private unnamed_addr constant [3 x i8] c"%s\00", align 1
@.str.2 = private unnamed_addr constant [4 x i8] c"%s\0A\00", align 1

; Function Attrs: noinline nounwind uwtable
define dso_local i32 @main() #0 {
  %1 = alloca i32, align 4
  %2 = alloca [60 x [40 x i8]], align 16
  %3 = alloca [40 x i8], align 16
  %4 = alloca i32, align 4
  %5 = alloca i32, align 4
  %6 = alloca i32, align 4
  %7 = alloca i32, align 4
  store i32 0, i32* %1, align 4
  %8 = call i32 (i8*, ...) @__isoc99_scanf(i8* getelementptr inbounds ([3 x i8], [3 x i8]* @.str, i64 0, i64 0), i32* %4)
  store i32 0, i32* %5, align 4
  br label %9

9:                                                ; preds = %19, %0
  %10 = load i32, i32* %5, align 4
  %11 = load i32, i32* %4, align 4
  %12 = icmp slt i32 %10, %11
  br i1 %12, label %13, label %22

13:                                               ; preds = %9
  %14 = load i32, i32* %5, align 4
  %15 = sext i32 %14 to i64
  %16 = getelementptr inbounds [60 x [40 x i8]], [60 x [40 x i8]]* %2, i64 0, i64 %15
  %17 = getelementptr inbounds [40 x i8], [40 x i8]* %16, i64 0, i64 0
  %18 = call i32 (i8*, ...) @__isoc99_scanf(i8* getelementptr inbounds ([3 x i8], [3 x i8]* @.str.1, i64 0, i64 0), i8* %17)
  br label %19

19:                                               ; preds = %13
  %20 = load i32, i32* %5, align 4
  %21 = add nsw i32 %20, 1
  store i32 %21, i32* %5, align 4
  br label %9

22:                                               ; preds = %9
  store i32 0, i32* %6, align 4
  br label %23

23:                                               ; preds = %128, %22
  %24 = load i32, i32* %6, align 4
  %25 = load i32, i32* %4, align 4
  %26 = icmp slt i32 %24, %25
  br i1 %26, label %27, label %131

27:                                               ; preds = %23
  %28 = load i32, i32* %6, align 4
  %29 = sext i32 %28 to i64
  %30 = getelementptr inbounds [60 x [40 x i8]], [60 x [40 x i8]]* %2, i64 0, i64 %29
  %31 = getelementptr inbounds [40 x i8], [40 x i8]* %30, i64 0, i64 0
  %32 = call i64 @strlen(i8* %31) #3
  %33 = trunc i64 %32 to i32
  store i32 %33, i32* %7, align 4
  %34 = load i32, i32* %6, align 4
  %35 = sext i32 %34 to i64
  %36 = getelementptr inbounds [60 x [40 x i8]], [60 x [40 x i8]]* %2, i64 0, i64 %35
  %37 = load i32, i32* %7, align 4
  %38 = sub nsw i32 %37, 1
  %39 = sext i32 %38 to i64
  %40 = getelementptr inbounds [40 x i8], [40 x i8]* %36, i64 0, i64 %39
  %41 = load i8, i8* %40, align 1
  %42 = sext i8 %41 to i32
  %43 = icmp eq i32 %42, 114
  br i1 %43, label %44, label %55

44:                                               ; preds = %27
  %45 = load i32, i32* %6, align 4
  %46 = sext i32 %45 to i64
  %47 = getelementptr inbounds [60 x [40 x i8]], [60 x [40 x i8]]* %2, i64 0, i64 %46
  %48 = load i32, i32* %7, align 4
  %49 = sub nsw i32 %48, 2
  %50 = sext i32 %49 to i64
  %51 = getelementptr inbounds [40 x i8], [40 x i8]* %47, i64 0, i64 %50
  %52 = load i8, i8* %51, align 1
  %53 = sext i8 %52 to i32
  %54 = icmp eq i32 %53, 101
  br i1 %54, label %77, label %55

55:                                               ; preds = %44, %27
  %56 = load i32, i32* %6, align 4
  %57 = sext i32 %56 to i64
  %58 = getelementptr inbounds [60 x [40 x i8]], [60 x [40 x i8]]* %2, i64 0, i64 %57
  %59 = load i32, i32* %7, align 4
  %60 = sub nsw i32 %59, 1
  %61 = sext i32 %60 to i64
  %62 = getelementptr inbounds [40 x i8], [40 x i8]* %58, i64 0, i64 %61
  %63 = load i8, i8* %62, align 1
  %64 = sext i8 %63 to i32
  %65 = icmp eq i32 %64, 121
  br i1 %65, label %66, label %101

66:                                               ; preds = %55
  %67 = load i32, i32* %6, align 4
  %68 = sext i32 %67 to i64
  %69 = getelementptr inbounds [60 x [40 x i8]], [60 x [40 x i8]]* %2, i64 0, i64 %68
  %70 = load i32, i32* %7, align 4
  %71 = sub nsw i32 %70, 2
  %72 = sext i32 %71 to i64
  %73 = getelementptr inbounds [40 x i8], [40 x i8]* %69, i64 0, i64 %72
  %74 = load i8, i8* %73, align 1
  %75 = sext i8 %74 to i32
  %76 = icmp eq i32 %75, 108
  br i1 %76, label %77, label %101

77:                                               ; preds = %66, %44
  store i32 0, i32* %5, align 4
  br label %78

78:                                               ; preds = %94, %77
  %79 = load i32, i32* %5, align 4
  %80 = load i32, i32* %7, align 4
  %81 = sub nsw i32 %80, 2
  %82 = icmp slt i32 %79, %81
  br i1 %82, label %83, label %97

83:                                               ; preds = %78
  %84 = load i32, i32* %6, align 4
  %85 = sext i32 %84 to i64
  %86 = getelementptr inbounds [60 x [40 x i8]], [60 x [40 x i8]]* %2, i64 0, i64 %85
  %87 = load i32, i32* %5, align 4
  %88 = sext i32 %87 to i64
  %89 = getelementptr inbounds [40 x i8], [40 x i8]* %86, i64 0, i64 %88
  %90 = load i8, i8* %89, align 1
  %91 = load i32, i32* %5, align 4
  %92 = sext i32 %91 to i64
  %93 = getelementptr inbounds [40 x i8], [40 x i8]* %3, i64 0, i64 %92
  store i8 %90, i8* %93, align 1
  br label %94

94:                                               ; preds = %83
  %95 = load i32, i32* %5, align 4
  %96 = add nsw i32 %95, 1
  store i32 %96, i32* %5, align 4
  br label %78

97:                                               ; preds = %78
  %98 = load i32, i32* %5, align 4
  %99 = sext i32 %98 to i64
  %100 = getelementptr inbounds [40 x i8], [40 x i8]* %3, i64 0, i64 %99
  store i8 0, i8* %100, align 1
  br label %125

101:                                              ; preds = %66, %55
  store i32 0, i32* %5, align 4
  br label %102

102:                                              ; preds = %118, %101
  %103 = load i32, i32* %5, align 4
  %104 = load i32, i32* %7, align 4
  %105 = sub nsw i32 %104, 3
  %106 = icmp slt i32 %103, %105
  br i1 %106, label %107, label %121

107:                                              ; preds = %102
  %108 = load i32, i32* %6, align 4
  %109 = sext i32 %108 to i64
  %110 = getelementptr inbounds [60 x [40 x i8]], [60 x [40 x i8]]* %2, i64 0, i64 %109
  %111 = load i32, i32* %5, align 4
  %112 = sext i32 %111 to i64
  %113 = getelementptr inbounds [40 x i8], [40 x i8]* %110, i64 0, i64 %112
  %114 = load i8, i8* %113, align 1
  %115 = load i32, i32* %5, align 4
  %116 = sext i32 %115 to i64
  %117 = getelementptr inbounds [40 x i8], [40 x i8]* %3, i64 0, i64 %116
  store i8 %114, i8* %117, align 1
  br label %118

118:                                              ; preds = %107
  %119 = load i32, i32* %5, align 4
  %120 = add nsw i32 %119, 1
  store i32 %120, i32* %5, align 4
  br label %102

121:                                              ; preds = %102
  %122 = load i32, i32* %5, align 4
  %123 = sext i32 %122 to i64
  %124 = getelementptr inbounds [40 x i8], [40 x i8]* %3, i64 0, i64 %123
  store i8 0, i8* %124, align 1
  br label %125

125:                                              ; preds = %121, %97
  %126 = getelementptr inbounds [40 x i8], [40 x i8]* %3, i64 0, i64 0
  %127 = call i32 (i8*, ...) @printf(i8* getelementptr inbounds ([4 x i8], [4 x i8]* @.str.2, i64 0, i64 0), i8* %126)
  br label %128

128:                                              ; preds = %125
  %129 = load i32, i32* %6, align 4
  %130 = add nsw i32 %129, 1
  store i32 %130, i32* %6, align 4
  br label %23

131:                                              ; preds = %23
  ret i32 0
}

declare dso_local i32 @__isoc99_scanf(i8*, ...) #1

; Function Attrs: nounwind readonly
declare dso_local i64 @strlen(i8*) #2

declare dso_local i32 @printf(i8*, ...) #1


!llvm.module.flags = !{!0}
!llvm.ident = !{!1}

!0 = !{i32 1, !"wchar_size", i32 4}
!1 = !{!"clang version 10.0.0-4ubuntu1 "}
